target datalayout = "e-m:e-p270:32:32-p271:32:32-p272:64:64-i64:64-i128:128-f80:128-n8:16:32:64-S128"
target triple = "x86_64-pc-linux-gnu"

%struct.expert_field = type { i32, i32 }

@hf_value = internal global i32 0, align 4
@hf_xattrs = internal global i32 0, align 4
@hf_xattr_length = internal global i32 0, align 4
@hf_xattr_pair_length = internal global i32 0, align 4
@hf_xattr_key = internal global i32 0, align 4
@hf_xattr_value = internal global i32 0, align 4
@ei_separator_not_found = internal global %struct.expert_field zeroinitializer, align 4
@ett_xattrs = internal global i32 0, align 4
@ett_xattr_pair = internal global i32 0, align 4
@.str.794 = private unnamed_addr constant [20 x i8] c"Null byte not found\00", align 1

; Function Attrs: null_pointer_is_valid sspstrong uwtable
define internal void @dissect_dcp_xattrs(ptr noundef %0, ptr noundef %1, i32 noundef %2, i32 noundef %3, ptr noundef %4) #0 {
  %6 = alloca ptr, align 8
  %7 = alloca ptr, align 8
  %8 = alloca i32, align 4
  %9 = alloca i32, align 4
  %10 = alloca ptr, align 8
  %11 = alloca i32, align 4
  %12 = alloca i32, align 4
  %13 = alloca i32, align 4
  %14 = alloca ptr, align 8
  %15 = alloca ptr, align 8
  %16 = alloca ptr, align 8
  %17 = alloca i32, align 4
  store ptr %0, ptr %6, align 8
  store ptr %1, ptr %7, align 8
  store i32 %2, ptr %8, align 4
  store i32 %3, ptr %9, align 4
  store ptr %4, ptr %10, align 8
  call void @llvm.lifetime.start.p0(i64 4, ptr %11) #7
  call void @llvm.lifetime.start.p0(i64 4, ptr %12) #7
  call void @llvm.lifetime.start.p0(i64 4, ptr %13) #7
  call void @llvm.lifetime.start.p0(i64 8, ptr %14) #7
  call void @llvm.lifetime.start.p0(i64 8, ptr %15) #7
  call void @llvm.lifetime.start.p0(i64 8, ptr %16) #7
  %18 = load ptr, ptr %7, align 8
  %19 = load i32, ptr @hf_xattr_length, align 4
  %20 = load ptr, ptr %6, align 8
  %21 = load i32, ptr %9, align 4
  %22 = call ptr @proto_tree_add_item_ret_uint(ptr noundef %18, i32 noundef %19, ptr noundef %20, i32 noundef %21, i32 noundef 4, i32 noundef 0, ptr noundef %11)
  %23 = load i32, ptr %8, align 4
  %24 = load i32, ptr %11, align 4
  %25 = add i32 %24, 4
  %26 = sub i32 %23, %25
  store i32 %26, ptr %8, align 4
  %27 = load i32, ptr %9, align 4
  %28 = add i32 %27, 4
  store i32 %28, ptr %9, align 4
  %29 = load ptr, ptr %7, align 8
  %30 = load i32, ptr @hf_xattrs, align 4
  %31 = load ptr, ptr %6, align 8
  %32 = load i32, ptr %9, align 4
  %33 = load i32, ptr %11, align 4
  %34 = call ptr @proto_tree_add_item(ptr noundef %29, i32 noundef %30, ptr noundef %31, i32 noundef %32, i32 noundef %33, i32 noundef 0)
  store ptr %34, ptr %16, align 8
  %35 = load ptr, ptr %16, align 8
  %36 = load i32, ptr @ett_xattrs, align 4
  %37 = call ptr @proto_item_add_subtree(ptr noundef %35, i32 noundef %36)
  store ptr %37, ptr %14, align 8
  br label %38

38:                                               ; preds = %97, %5
  %39 = load i32, ptr %11, align 4
  %40 = icmp ugt i32 %39, 0
  br i1 %40, label %41, label %114

41:                                               ; preds = %38
  %42 = load ptr, ptr %14, align 8
  %43 = load i32, ptr @hf_xattr_pair_length, align 4
  %44 = load ptr, ptr %6, align 8
  %45 = load i32, ptr %9, align 4
  %46 = call ptr @proto_tree_add_item_ret_uint(ptr noundef %42, i32 noundef %43, ptr noundef %44, i32 noundef %45, i32 noundef 4, i32 noundef 0, ptr noundef %12)
  store ptr %46, ptr %16, align 8
  %47 = load ptr, ptr %16, align 8
  %48 = load i32, ptr @ett_xattr_pair, align 4
  %49 = call ptr @proto_item_add_subtree(ptr noundef %47, i32 noundef %48)
  store ptr %49, ptr %15, align 8
  %50 = load i32, ptr %9, align 4
  %51 = add i32 %50, 4
  store i32 %51, ptr %9, align 4
  %52 = load i32, ptr %11, align 4
  %53 = sub i32 %52, 4
  store i32 %53, ptr %11, align 4
  %54 = load ptr, ptr %6, align 8
  %55 = load i32, ptr %9, align 4
  %56 = load i32, ptr %12, align 4
  %57 = call i32 @tvb_find_uint8(ptr noundef %54, i32 noundef %55, i32 noundef %56, i8 noundef zeroext 0)
  store i32 %57, ptr %13, align 4
  %58 = load i32, ptr %13, align 4
  %59 = icmp eq i32 %58, -1
  br i1 %59, label %60, label %64

60:                                               ; preds = %41
  %61 = load ptr, ptr %10, align 8
  %62 = load ptr, ptr %16, align 8
  %63 = call ptr (ptr, ptr, ptr, ptr, ...) @expert_add_info_format(ptr noundef %61, ptr noundef %62, ptr noundef @ei_separator_not_found, ptr noundef @.str.794)
  store i32 1, ptr %17, align 4
  br label %121

64:                                               ; preds = %41
  %65 = load ptr, ptr %15, align 8
  %66 = load i32, ptr @hf_xattr_key, align 4
  %67 = load ptr, ptr %6, align 8
  %68 = load i32, ptr %9, align 4
  %69 = load i32, ptr %13, align 4
  %70 = load i32, ptr %9, align 4
  %71 = sub i32 %69, %70
  %72 = call ptr @proto_tree_add_item(ptr noundef %65, i32 noundef %66, ptr noundef %67, i32 noundef %68, i32 noundef %71, i32 noundef 0)
  store ptr %72, ptr %16, align 8
  %73 = load i32, ptr %13, align 4
  %74 = load i32, ptr %9, align 4
  %75 = sub i32 %73, %74
  %76 = add i32 %75, 1
  %77 = load i32, ptr %11, align 4
  %78 = sub i32 %77, %76
  store i32 %78, ptr %11, align 4
  %79 = load i32, ptr %13, align 4
  %80 = load i32, ptr %9, align 4
  %81 = sub i32 %79, %80
  %82 = add i32 %81, 1
  %83 = load i32, ptr %12, align 4
  %84 = sub i32 %83, %82
  store i32 %84, ptr %12, align 4
  %85 = load i32, ptr %13, align 4
  %86 = add i32 %85, 1
  store i32 %86, ptr %9, align 4
  %87 = load ptr, ptr %6, align 8
  %88 = load i32, ptr %9, align 4
  %89 = load i32, ptr %12, align 4
  %90 = call i32 @tvb_find_uint8(ptr noundef %87, i32 noundef %88, i32 noundef %89, i8 noundef zeroext 0)
  store i32 %90, ptr %13, align 4
  %91 = load i32, ptr %13, align 4
  %92 = icmp eq i32 %91, -1
  br i1 %92, label %93, label %97

93:                                               ; preds = %64
  %94 = load ptr, ptr %10, align 8
  %95 = load ptr, ptr %16, align 8
  %96 = call ptr (ptr, ptr, ptr, ptr, ...) @expert_add_info_format(ptr noundef %94, ptr noundef %95, ptr noundef @ei_separator_not_found, ptr noundef @.str.794)
  store i32 1, ptr %17, align 4
  br label %121

97:                                               ; preds = %64
  %98 = load ptr, ptr %15, align 8
  %99 = load i32, ptr @hf_xattr_value, align 4
  %100 = load ptr, ptr %6, align 8
  %101 = load i32, ptr %9, align 4
  %102 = load i32, ptr %13, align 4
  %103 = load i32, ptr %9, align 4
  %104 = sub i32 %102, %103
  %105 = call ptr @proto_tree_add_item(ptr noundef %98, i32 noundef %99, ptr noundef %100, i32 noundef %101, i32 noundef %104, i32 noundef 0)
  %106 = load i32, ptr %13, align 4
  %107 = load i32, ptr %9, align 4
  %108 = sub i32 %106, %107
  %109 = add i32 %108, 1
  %110 = load i32, ptr %11, align 4
  %111 = sub i32 %110, %109
  store i32 %111, ptr %11, align 4
  %112 = load i32, ptr %13, align 4
  %113 = add i32 %112, 1
  store i32 %113, ptr %9, align 4
  br label %38, !llvm.loop !21

114:                                              ; preds = %38
  %115 = load ptr, ptr %7, align 8
  %116 = load i32, ptr @hf_value, align 4
  %117 = load ptr, ptr %6, align 8
  %118 = load i32, ptr %9, align 4
  %119 = load i32, ptr %8, align 4
  %120 = call ptr @proto_tree_add_item(ptr noundef %115, i32 noundef %116, ptr noundef %117, i32 noundef %118, i32 noundef %119, i32 noundef 0)
  store i32 0, ptr %17, align 4
  br label %121

121:                                              ; preds = %114, %93, %60
  call void @llvm.lifetime.end.p0(i64 8, ptr %16) #7
  call void @llvm.lifetime.end.p0(i64 8, ptr %15) #7
  call void @llvm.lifetime.end.p0(i64 8, ptr %14) #7
  call void @llvm.lifetime.end.p0(i64 4, ptr %13) #7
  call void @llvm.lifetime.end.p0(i64 4, ptr %12) #7
  call void @llvm.lifetime.end.p0(i64 4, ptr %11) #7
  %122 = load i32, ptr %17, align 4
  switch i32 %122, label %124 [
    i32 0, label %123
    i32 1, label %123
  ]

123:                                              ; preds = %121, %121
  ret void

124:                                              ; preds = %121
  unreachable
}