; Function Attrs: null_pointer_is_valid sspstrong uwtable
define internal fastcc void @dissect_dcp_xattrs(ptr noundef %0, ptr noundef %1, i32 noundef range(i32 1, 0) %2, i32 noundef range(i32 24, 66070) %3, ptr noundef %4) unnamed_addr #0 {
  %6 = alloca i32, align 4
  %7 = alloca i32, align 4
  call void @llvm.lifetime.start.p0(i64 4, ptr nonnull %6) #4
  call void @llvm.lifetime.start.p0(i64 4, ptr nonnull %7) #4
  %8 = load i32, ptr @hf_xattr_length, align 4
  %9 = call ptr @proto_tree_add_item_ret_uint(ptr noundef %1, i32 noundef %8, ptr noundef %0, i32 noundef %3, i32 noundef 4, i32 noundef 0, ptr noundef nonnull %6)
  %10 = load i32, ptr %6, align 4
  %.neg48 = add i32 %2, -4
  %11 = sub i32 %.neg48, %10
  %12 = add nuw nsw i32 %3, 4
  %13 = load i32, ptr @hf_xattrs, align 4
  %14 = call ptr @proto_tree_add_item(ptr noundef %1, i32 noundef %13, ptr noundef %0, i32 noundef %12, i32 noundef %10, i32 noundef 0)
  %15 = load i32, ptr @ett_xattrs, align 4
  %16 = call ptr @proto_item_add_subtree(ptr noundef %14, i32 noundef %15)
  %.pr = load i32, ptr %6, align 4
  %.not53 = icmp eq i32 %.pr, 0
  br i1 %.not53, label %._crit_edge, label %.lr.ph

.lr.ph:                                           ; preds = %5, %43
  %.054 = phi i32 [ %49, %43 ], [ %12, %5 ]
  %17 = load i32, ptr @hf_xattr_pair_length, align 4
  %18 = call ptr @proto_tree_add_item_ret_uint(ptr noundef %16, i32 noundef %17, ptr noundef %0, i32 noundef %.054, i32 noundef 4, i32 noundef 0, ptr noundef nonnull %7)
  %19 = load i32, ptr @ett_xattr_pair, align 4
  %20 = call ptr @proto_item_add_subtree(ptr noundef %18, i32 noundef %19)
  %21 = add i32 %.054, 4
  %22 = load i32, ptr %6, align 4
  %23 = add i32 %22, -4
  store i32 %23, ptr %6, align 4
  %24 = load i32, ptr %7, align 4
  %25 = call i32 @tvb_find_uint8(ptr noundef %0, i32 noundef %21, i32 noundef %24, i8 noundef zeroext 0)
  %26 = icmp eq i32 %25, -1
  br i1 %26, label %27, label %29

27:                                               ; preds = %.lr.ph
  %28 = call ptr (ptr, ptr, ptr, ptr, ...) @expert_add_info_format(ptr noundef %4, ptr noundef %18, ptr noundef nonnull @ei_separator_not_found, ptr noundef nonnull @.str.794)
  br label %52

29:                                               ; preds = %.lr.ph
  %30 = load i32, ptr @hf_xattr_key, align 4
  %31 = sub i32 %25, %21
  %32 = call ptr @proto_tree_add_item(ptr noundef %20, i32 noundef %30, ptr noundef %0, i32 noundef %21, i32 noundef %31, i32 noundef 0)
  %33 = add i32 %31, 1
  %34 = load i32, ptr %6, align 4
  %35 = sub i32 %34, %33
  store i32 %35, ptr %6, align 4
  %36 = load i32, ptr %7, align 4
  %37 = sub i32 %36, %33
  store i32 %37, ptr %7, align 4
  %38 = add nuw i32 %25, 1
  %39 = call i32 @tvb_find_uint8(ptr noundef %0, i32 noundef %38, i32 noundef %37, i8 noundef zeroext 0)
  %40 = icmp eq i32 %39, -1
  br i1 %40, label %41, label %43

41:                                               ; preds = %29
  %42 = call ptr (ptr, ptr, ptr, ptr, ...) @expert_add_info_format(ptr noundef %4, ptr noundef %32, ptr noundef nonnull @ei_separator_not_found, ptr noundef nonnull @.str.794)
  br label %52

43:                                               ; preds = %29
  %44 = load i32, ptr @hf_xattr_value, align 4
  %45 = sub i32 %39, %38
  %46 = call ptr @proto_tree_add_item(ptr noundef %20, i32 noundef %44, ptr noundef %0, i32 noundef %38, i32 noundef %45, i32 noundef 0)
  %.neg = xor i32 %45, -1
  %47 = load i32, ptr %6, align 4
  %48 = add i32 %47, %.neg
  store i32 %48, ptr %6, align 4
  %49 = add nuw i32 %39, 1
  %.not = icmp eq i32 %48, 0
  br i1 %.not, label %._crit_edge, label %.lr.ph, !llvm.loop !21

._crit_edge:                                      ; preds = %43, %5
  %.0.lcssa = phi i32 [ %12, %5 ], [ %49, %43 ]
  %50 = load i32, ptr @hf_value, align 4
  %51 = call ptr @proto_tree_add_item(ptr noundef %1, i32 noundef %50, ptr noundef %0, i32 noundef %.0.lcssa, i32 noundef %11, i32 noundef 0)
  br label %52

52:                                               ; preds = %._crit_edge, %41, %27
  call void @llvm.lifetime.end.p0(i64 4, ptr nonnull %7) #4
  call void @llvm.lifetime.end.p0(i64 4, ptr nonnull %6) #4
  ret void
}